target datalayout = "e-m:e-p270:32:32-p271:32:32-p272:64:64-i64:64-i128:128-f80:128-n8:16:32:64-S128"
target triple = "x86_64-pc-linux-gnu"

%struct.IDAMemRec = type { double, ptr, ptr, i32, double, double, ptr, i32, ptr, ptr, i32, ptr, ptr, i32, i32, double, double, ptr, i32, i32, i32, ptr, ptr, i32, ptr, ptr, ptr, i32, double, i32, i32, double, ptr, ptr, i32, ptr, ptr, i32, i32, i32, double, ptr, ptr, [6 x ptr], [6 x double], [6 x double], [6 x double], [6 x double], [6 x double], ptr, ptr, ptr, ptr, ptr, ptr, ptr, ptr, ptr, ptr, ptr, ptr, ptr, ptr, ptr, [6 x ptr], ptr, ptr, ptr, ptr, [6 x ptr], ptr, ptr, ptr, ptr, ptr, ptr, ptr, ptr, ptr, ptr, ptr, ptr, ptr, ptr, [6 x ptr], ptr, ptr, ptr, ptr, ptr, double, ptr, ptr, i32, i32, i32, i32, i32, i32, i32, double, double, double, i32, double, i32, i32, i32, i32, double, double, double, double, double, double, double, double, double, double, double, double, double, double, i32, i32, i32, i32, i32, i64, double, i32, i64, i64, i64, i64, i64, i64, i64, i64, i64, i64, i64, i64, i64, i64, i64, i64, i64, i64, i64, i64, i64, i64, i64, i64, ptr, ptr, ptr, i32, i32, i32, i32, i32, i32, i32, i32, i32, i32, i32, i32, i32, ptr, ptr, ptr, ptr, ptr, ptr, i32, i32, i32, i32, i32, i32, double, double, double, ptr, i32, ptr, ptr, double, double, double, ptr, ptr, ptr, double, double, i32, i32, i64, ptr, i32, i32, ptr, i32 }

; Function Attrs: nounwind uwtable
define internal i32 @IDAAGettnSolutionYpS(ptr noundef %0, ptr noundef %1) #0 {
  %3 = alloca i32, align 4
  %4 = alloca ptr, align 8
  %5 = alloca ptr, align 8
  %6 = alloca i32, align 4
  %7 = alloca i32, align 4
  %8 = alloca i32, align 4
  %9 = alloca double, align 8
  %10 = alloca double, align 8
  %11 = alloca double, align 8
  %12 = alloca i32, align 4
  store ptr %0, ptr %4, align 8, !tbaa !11
  store ptr %1, ptr %5, align 8, !tbaa !75
  call void @llvm.lifetime.start.p0(i64 4, ptr %6) #6
  call void @llvm.lifetime.start.p0(i64 4, ptr %7) #6
  call void @llvm.lifetime.start.p0(i64 4, ptr %8) #6
  call void @llvm.lifetime.start.p0(i64 8, ptr %9) #6
  call void @llvm.lifetime.start.p0(i64 8, ptr %10) #6
  call void @llvm.lifetime.start.p0(i64 8, ptr %11) #6
  %13 = load ptr, ptr %4, align 8, !tbaa !11
  %14 = getelementptr inbounds nuw %struct.IDAMemRec, ptr %13, i32 0, i32 131
  %15 = load i64, ptr %14, align 8, !tbaa !152
  %16 = icmp eq i64 %15, 0
  br i1 %16, label %17, label %42

17:                                               ; preds = %2
  store i32 0, ptr %8, align 4, !tbaa !9
  br label %18

18:                                               ; preds = %38, %17
  %19 = load i32, ptr %8, align 4, !tbaa !9
  %20 = load ptr, ptr %4, align 8, !tbaa !11
  %21 = getelementptr inbounds nuw %struct.IDAMemRec, ptr %20, i32 0, i32 19
  %22 = load i32, ptr %21, align 4, !tbaa !62
  %23 = icmp slt i32 %19, %22
  br i1 %23, label %24, label %41

24:                                               ; preds = %18
  %25 = load ptr, ptr %4, align 8, !tbaa !11
  %26 = getelementptr inbounds nuw %struct.IDAMemRec, ptr %25, i32 0, i32 69
  %27 = getelementptr inbounds [6 x ptr], ptr %26, i64 0, i64 1
  %28 = load ptr, ptr %27, align 8, !tbaa !75
  %29 = load i32, ptr %8, align 4, !tbaa !9
  %30 = sext i32 %29 to i64
  %31 = getelementptr inbounds ptr, ptr %28, i64 %30
  %32 = load ptr, ptr %31, align 8, !tbaa !74
  %33 = load ptr, ptr %5, align 8, !tbaa !75
  %34 = load i32, ptr %8, align 4, !tbaa !9
  %35 = sext i32 %34 to i64
  %36 = getelementptr inbounds ptr, ptr %33, i64 %35
  %37 = load ptr, ptr %36, align 8, !tbaa !74
  call void @N_VScale(double noundef 1.000000e+00, ptr noundef %32, ptr noundef %37)
  br label %38

38:                                               ; preds = %24
  %39 = load i32, ptr %8, align 4, !tbaa !9
  %40 = add nsw i32 %39, 1
  store i32 %40, ptr %8, align 4, !tbaa !9
  br label %18, !llvm.loop !256

41:                                               ; preds = %18
  store i32 0, ptr %3, align 4
  store i32 1, ptr %12, align 4
  br label %138

42:                                               ; preds = %2
  store i32 0, ptr %8, align 4, !tbaa !9
  br label %43

43:                                               ; preds = %55, %42
  %44 = load i32, ptr %8, align 4, !tbaa !9
  %45 = load ptr, ptr %4, align 8, !tbaa !11
  %46 = getelementptr inbounds nuw %struct.IDAMemRec, ptr %45, i32 0, i32 19
  %47 = load i32, ptr %46, align 4, !tbaa !62
  %48 = icmp slt i32 %44, %47
  br i1 %48, label %49, label %58

49:                                               ; preds = %43
  %50 = load ptr, ptr %5, align 8, !tbaa !75
  %51 = load i32, ptr %8, align 4, !tbaa !9
  %52 = sext i32 %51 to i64
  %53 = getelementptr inbounds ptr, ptr %50, i64 %52
  %54 = load ptr, ptr %53, align 8, !tbaa !74
  call void @N_VConst(double noundef 0.000000e+00, ptr noundef %54)
  br label %55

55:                                               ; preds = %49
  %56 = load i32, ptr %8, align 4, !tbaa !9
  %57 = add nsw i32 %56, 1
  store i32 %57, ptr %8, align 4, !tbaa !9
  br label %43, !llvm.loop !257

58:                                               ; preds = %43
  %59 = load ptr, ptr %4, align 8, !tbaa !11
  %60 = getelementptr inbounds nuw %struct.IDAMemRec, ptr %59, i32 0, i32 182
  %61 = load i32, ptr %60, align 4, !tbaa !111
  store i32 %61, ptr %7, align 4, !tbaa !9
  %62 = load ptr, ptr %4, align 8, !tbaa !11
  %63 = getelementptr inbounds nuw %struct.IDAMemRec, ptr %62, i32 0, i32 182
  %64 = load i32, ptr %63, align 4, !tbaa !111
  %65 = icmp eq i32 %64, 0
  br i1 %65, label %66, label %67

66:                                               ; preds = %58
  store i32 1, ptr %7, align 4, !tbaa !9
  br label %67

67:                                               ; preds = %66, %58
  store double 1.000000e+00, ptr %9, align 8, !tbaa !73
  store double 0.000000e+00, ptr %10, align 8, !tbaa !73
  store double 0.000000e+00, ptr %11, align 8, !tbaa !73
  store i32 1, ptr %6, align 4, !tbaa !9
  br label %68

68:                                               ; preds = %134, %67
  %69 = load i32, ptr %6, align 4, !tbaa !9
  %70 = load i32, ptr %7, align 4, !tbaa !9
  %71 = icmp sle i32 %69, %70
  br i1 %71, label %72, label %137

72:                                               ; preds = %68
  %73 = load double, ptr %10, align 8, !tbaa !73
  %74 = load double, ptr %11, align 8, !tbaa !73
  %75 = load double, ptr %9, align 8, !tbaa !73
  %76 = load ptr, ptr %4, align 8, !tbaa !11
  %77 = getelementptr inbounds nuw %struct.IDAMemRec, ptr %76, i32 0, i32 44
  %78 = load i32, ptr %6, align 4, !tbaa !9
  %79 = sub nsw i32 %78, 1
  %80 = sext i32 %79 to i64
  %81 = getelementptr inbounds [6 x double], ptr %77, i64 0, i64 %80
  %82 = load double, ptr %81, align 8, !tbaa !73
  %83 = fdiv double %75, %82
  %84 = call double @llvm.fmuladd.f64(double %73, double %74, double %83)
  store double %84, ptr %10, align 8, !tbaa !73
  %85 = load double, ptr %9, align 8, !tbaa !73
  %86 = load double, ptr %11, align 8, !tbaa !73
  %87 = fmul double %85, %86
  store double %87, ptr %9, align 8, !tbaa !73
  %88 = load ptr, ptr %4, align 8, !tbaa !11
  %89 = getelementptr inbounds nuw %struct.IDAMemRec, ptr %88, i32 0, i32 44
  %90 = load i32, ptr %6, align 4, !tbaa !9
  %91 = sub nsw i32 %90, 1
  %92 = sext i32 %91 to i64
  %93 = getelementptr inbounds [6 x double], ptr %89, i64 0, i64 %92
  %94 = load double, ptr %93, align 8, !tbaa !73
  %95 = load ptr, ptr %4, align 8, !tbaa !11
  %96 = getelementptr inbounds nuw %struct.IDAMemRec, ptr %95, i32 0, i32 44
  %97 = load i32, ptr %6, align 4, !tbaa !9
  %98 = sext i32 %97 to i64
  %99 = getelementptr inbounds [6 x double], ptr %96, i64 0, i64 %98
  %100 = load double, ptr %99, align 8, !tbaa !73
  %101 = fdiv double %94, %100
  store double %101, ptr %11, align 8, !tbaa !73
  store i32 0, ptr %8, align 4, !tbaa !9
  br label %102

102:                                              ; preds = %130, %72
  %103 = load i32, ptr %8, align 4, !tbaa !9
  %104 = load ptr, ptr %4, align 8, !tbaa !11
  %105 = getelementptr inbounds nuw %struct.IDAMemRec, ptr %104, i32 0, i32 19
  %106 = load i32, ptr %105, align 4, !tbaa !62
  %107 = icmp slt i32 %103, %106
  br i1 %107, label %108, label %133

108:                                              ; preds = %102
  %109 = load ptr, ptr %5, align 8, !tbaa !75
  %110 = load i32, ptr %8, align 4, !tbaa !9
  %111 = sext i32 %110 to i64
  %112 = getelementptr inbounds ptr, ptr %109, i64 %111
  %113 = load ptr, ptr %112, align 8, !tbaa !74
  %114 = load double, ptr %10, align 8, !tbaa !73
  %115 = load ptr, ptr %4, align 8, !tbaa !11
  %116 = getelementptr inbounds nuw %struct.IDAMemRec, ptr %115, i32 0, i32 69
  %117 = load i32, ptr %6, align 4, !tbaa !9
  %118 = sext i32 %117 to i64
  %119 = getelementptr inbounds [6 x ptr], ptr %116, i64 0, i64 %118
  %120 = load ptr, ptr %119, align 8, !tbaa !75
  %121 = load i32, ptr %8, align 4, !tbaa !9
  %122 = sext i32 %121 to i64
  %123 = getelementptr inbounds ptr, ptr %120, i64 %122
  %124 = load ptr, ptr %123, align 8, !tbaa !74
  %125 = load ptr, ptr %5, align 8, !tbaa !75
  %126 = load i32, ptr %8, align 4, !tbaa !9
  %127 = sext i32 %126 to i64
  %128 = getelementptr inbounds ptr, ptr %125, i64 %127
  %129 = load ptr, ptr %128, align 8, !tbaa !74
  call void @N_VLinearSum(double noundef 1.000000e+00, ptr noundef %113, double noundef %114, ptr noundef %124, ptr noundef %129)
  br label %130

130:                                              ; preds = %108
  %131 = load i32, ptr %8, align 4, !tbaa !9
  %132 = add nsw i32 %131, 1
  store i32 %132, ptr %8, align 4, !tbaa !9
  br label %102, !llvm.loop !258

133:                                              ; preds = %102
  br label %134

134:                                              ; preds = %133
  %135 = load i32, ptr %6, align 4, !tbaa !9
  %136 = add nsw i32 %135, 1
  store i32 %136, ptr %6, align 4, !tbaa !9
  br label %68, !llvm.loop !259

137:                                              ; preds = %68
  store i32 0, ptr %3, align 4
  store i32 1, ptr %12, align 4
  br label %138

138:                                              ; preds = %137, %41
  call void @llvm.lifetime.end.p0(i64 8, ptr %11) #6
  call void @llvm.lifetime.end.p0(i64 8, ptr %10) #6
  call void @llvm.lifetime.end.p0(i64 8, ptr %9) #6
  call void @llvm.lifetime.end.p0(i64 4, ptr %8) #6
  call void @llvm.lifetime.end.p0(i64 4, ptr %7) #6
  call void @llvm.lifetime.end.p0(i64 4, ptr %6) #6
  %139 = load i32, ptr %3, align 4
  ret i32 %139
}