; Function Attrs: nounwind uwtable
define internal fastcc void @IDAAGettnSolutionYpS(ptr noundef readonly captures(none) %0, ptr noundef readonly captures(none) %1) unnamed_addr #0 {
  %3 = getelementptr inbounds nuw i8, ptr %0, i64 1320
  %4 = load i64, ptr %3, align 8, !tbaa !75
  %5 = icmp eq i64 %4, 0
  %6 = getelementptr inbounds nuw i8, ptr %0, i64 140
  %7 = load i32, ptr %6, align 4, !tbaa !50
  %8 = icmp sgt i32 %7, 0
  br i1 %5, label %.preheader, label %.preheader46

.preheader46:                                     ; preds = %2
  br i1 %8, label %.lr.ph, label %._crit_edge

.preheader:                                       ; preds = %2
  br i1 %8, label %.lr.ph60, label %.loopexit

.lr.ph60:                                         ; preds = %.preheader
  %9 = getelementptr inbounds nuw i8, ptr %0, i64 808
  br label %10

10:                                               ; preds = %.lr.ph60, %10
  %indvars.iv73 = phi i64 [ 0, %.lr.ph60 ], [ %indvars.iv.next74, %10 ]
  %11 = load ptr, ptr %9, align 8, !tbaa !70
  %12 = getelementptr inbounds nuw ptr, ptr %11, i64 %indvars.iv73
  %13 = load ptr, ptr %12, align 8, !tbaa !68
  %14 = getelementptr inbounds nuw ptr, ptr %1, i64 %indvars.iv73
  %15 = load ptr, ptr %14, align 8, !tbaa !68
  tail call void @N_VScale(double noundef 1.000000e+00, ptr noundef %13, ptr noundef %15) #9
  %indvars.iv.next74 = add nuw nsw i64 %indvars.iv73, 1
  %16 = load i32, ptr %6, align 4, !tbaa !50
  %17 = sext i32 %16 to i64
  %18 = icmp slt i64 %indvars.iv.next74, %17
  br i1 %18, label %10, label %.loopexit, !llvm.loop !229

.lr.ph:                                           ; preds = %.preheader46, %.lr.ph
  %indvars.iv = phi i64 [ %indvars.iv.next, %.lr.ph ], [ 0, %.preheader46 ]
  %19 = getelementptr inbounds nuw ptr, ptr %1, i64 %indvars.iv
  %20 = load ptr, ptr %19, align 8, !tbaa !68
  tail call void @N_VConst(double noundef 0.000000e+00, ptr noundef %20) #9
  %indvars.iv.next = add nuw nsw i64 %indvars.iv, 1
  %21 = load i32, ptr %6, align 4, !tbaa !50
  %22 = sext i32 %21 to i64
  %23 = icmp slt i64 %indvars.iv.next, %22
  br i1 %23, label %.lr.ph, label %._crit_edge, !llvm.loop !230

._crit_edge:                                      ; preds = %.lr.ph, %.preheader46
  %24 = phi i32 [ %7, %.preheader46 ], [ %21, %.lr.ph ]
  %25 = getelementptr inbounds nuw i8, ptr %0, i64 1660
  %26 = load i32, ptr %25, align 4, !tbaa !76
  %spec.store.select = tail call i32 @llvm.umax.i32(i32 %26, i32 1)
  %.not52 = icmp slt i32 %spec.store.select, 1
  br i1 %.not52, label %.loopexit, label %.lr.ph58

.lr.ph58:                                         ; preds = %._crit_edge
  %27 = getelementptr inbounds nuw i8, ptr %0, i64 360
  %28 = getelementptr inbounds nuw i8, ptr %0, i64 800
  %29 = icmp sgt i32 %24, 0
  br i1 %29, label %.lr.ph58.split.preheader, label %.loopexit

.lr.ph58.split.preheader:                         ; preds = %.lr.ph58
  %30 = add nuw i32 %spec.store.select, 1
  %wide.trip.count = zext i32 %30 to i64
  br label %.lr.ph58.split

.lr.ph58.split:                                   ; preds = %.lr.ph58.split.preheader, %._crit_edge51
  %31 = phi i32 [ %24, %.lr.ph58.split.preheader ], [ %52, %._crit_edge51 ]
  %indvars.iv70 = phi i64 [ 1, %.lr.ph58.split.preheader ], [ %indvars.iv.next71, %._crit_edge51 ]
  %.056 = phi double [ 0.000000e+00, %.lr.ph58.split.preheader ], [ %40, %._crit_edge51 ]
  %.04055 = phi double [ 0.000000e+00, %.lr.ph58.split.preheader ], [ %36, %._crit_edge51 ]
  %.04154 = phi double [ 1.000000e+00, %.lr.ph58.split.preheader ], [ %37, %._crit_edge51 ]
  %32 = add nsw i64 %indvars.iv70, -1
  %33 = getelementptr inbounds [6 x double], ptr %27, i64 0, i64 %32
  %34 = load double, ptr %33, align 8, !tbaa !77
  %35 = fdiv double %.04154, %34
  %36 = tail call double @llvm.fmuladd.f64(double %.04055, double %.056, double %35)
  %37 = fmul double %.04154, %.056
  %38 = getelementptr inbounds nuw [6 x double], ptr %27, i64 0, i64 %indvars.iv70
  %39 = load double, ptr %38, align 8, !tbaa !77
  %40 = fdiv double %34, %39
  %41 = icmp sgt i32 %31, 0
  br i1 %41, label %.lr.ph50, label %._crit_edge51

.lr.ph50:                                         ; preds = %.lr.ph58.split
  %42 = getelementptr inbounds nuw [6 x ptr], ptr %28, i64 0, i64 %indvars.iv70
  br label %43

43:                                               ; preds = %.lr.ph50, %43
  %indvars.iv67 = phi i64 [ 0, %.lr.ph50 ], [ %indvars.iv.next68, %43 ]
  %44 = getelementptr inbounds nuw ptr, ptr %1, i64 %indvars.iv67
  %45 = load ptr, ptr %44, align 8, !tbaa !68
  %46 = load ptr, ptr %42, align 8, !tbaa !70
  %47 = getelementptr inbounds nuw ptr, ptr %46, i64 %indvars.iv67
  %48 = load ptr, ptr %47, align 8, !tbaa !68
  tail call void @N_VLinearSum(double noundef 1.000000e+00, ptr noundef %45, double noundef %36, ptr noundef %48, ptr noundef %45) #9
  %indvars.iv.next68 = add nuw nsw i64 %indvars.iv67, 1
  %49 = load i32, ptr %6, align 4, !tbaa !50
  %50 = sext i32 %49 to i64
  %51 = icmp slt i64 %indvars.iv.next68, %50
  br i1 %51, label %43, label %._crit_edge51, !llvm.loop !231

._crit_edge51:                                    ; preds = %43, %.lr.ph58.split
  %52 = phi i32 [ %31, %.lr.ph58.split ], [ %49, %43 ]
  %indvars.iv.next71 = add nuw nsw i64 %indvars.iv70, 1
  %exitcond.not = icmp eq i64 %indvars.iv.next71, %wide.trip.count
  br i1 %exitcond.not, label %.loopexit, label %.lr.ph58.split, !llvm.loop !232

.loopexit:                                        ; preds = %._crit_edge51, %10, %.lr.ph58, %._crit_edge, %.preheader
  ret void
}